target datalayout = "e-m:e-p270:32:32-p271:32:32-p272:64:64-i64:64-i128:128-f80:128-n8:16:32:64-S128"
target triple = "x86_64-unknown-linux-gnu"

%"class.rocksdb::SemiStructuredUniqueIdGen" = type { i64, i64, %"struct.std::atomic", i64 }
%"struct.std::atomic" = type { %"struct.std::__atomic_base" }
%"struct.std::__atomic_base" = type { i64 }

; Function Attrs: mustprogress uwtable
define void @_ZN7rocksdb25SemiStructuredUniqueIdGen12GenerateNextEPmS1_(ptr noundef nonnull align 8 dereferenceable(32) %this, ptr noundef %upper, ptr noundef %lower) #0 align 2 {
entry:
  %this.addr.i = alloca ptr, align 8
  %__i.addr.i = alloca i64, align 8
  %__m.addr.i = alloca i32, align 4
  %.atomictmp.i = alloca i64, align 8
  %atomic-temp.i = alloca i64, align 8
  %this.addr = alloca ptr, align 8
  %upper.addr = alloca ptr, align 8
  %lower.addr = alloca ptr, align 8
  store ptr %this, ptr %this.addr, align 8
  store ptr %upper, ptr %upper.addr, align 8
  store ptr %lower, ptr %lower.addr, align 8
  %this1 = load ptr, ptr %this.addr, align 8
  %call = call noundef i64 @_ZN7rocksdb4port12GetProcessIDEv()
  %saved_process_id_ = getelementptr inbounds %"class.rocksdb::SemiStructuredUniqueIdGen", ptr %this1, i32 0, i32 3
  %0 = load i64, ptr %saved_process_id_, align 8
  %cmp = icmp eq i64 %call, %0
  br i1 %cmp, label %if.then, label %if.else

if.then:                                          ; preds = %entry
  %base_lower_ = getelementptr inbounds %"class.rocksdb::SemiStructuredUniqueIdGen", ptr %this1, i32 0, i32 1
  %1 = load i64, ptr %base_lower_, align 8
  %counter_ = getelementptr inbounds %"class.rocksdb::SemiStructuredUniqueIdGen", ptr %this1, i32 0, i32 2
  store ptr %counter_, ptr %this.addr.i, align 8
  store i64 1, ptr %__i.addr.i, align 8
  store i32 5, ptr %__m.addr.i, align 4
  %this1.i = load ptr, ptr %this.addr.i, align 8
  %2 = load i32, ptr %__m.addr.i, align 4
  %3 = load i64, ptr %__i.addr.i, align 8
  store i64 %3, ptr %.atomictmp.i, align 8
  switch i32 %2, label %monotonic.i [
    i32 1, label %acquire.i
    i32 2, label %acquire.i
    i32 3, label %release.i
    i32 4, label %acqrel.i
    i32 5, label %seqcst.i
  ]

monotonic.i:                                      ; preds = %if.then
  %4 = load i64, ptr %.atomictmp.i, align 8
  %5 = atomicrmw add ptr %this1.i, i64 %4 monotonic, align 8
  store i64 %5, ptr %atomic-temp.i, align 8
  br label %_ZNSt13__atomic_baseImE9fetch_addEmSt12memory_order.exit

acquire.i:                                        ; preds = %if.then, %if.then
  %6 = load i64, ptr %.atomictmp.i, align 8
  %7 = atomicrmw add ptr %this1.i, i64 %6 acquire, align 8
  store i64 %7, ptr %atomic-temp.i, align 8
  br label %_ZNSt13__atomic_baseImE9fetch_addEmSt12memory_order.exit

release.i:                                        ; preds = %if.then
  %8 = load i64, ptr %.atomictmp.i, align 8
  %9 = atomicrmw add ptr %this1.i, i64 %8 release, align 8
  store i64 %9, ptr %atomic-temp.i, align 8
  br label %_ZNSt13__atomic_baseImE9fetch_addEmSt12memory_order.exit

acqrel.i:                                         ; preds = %if.then
  %10 = load i64, ptr %.atomictmp.i, align 8
  %11 = atomicrmw add ptr %this1.i, i64 %10 acq_rel, align 8
  store i64 %11, ptr %atomic-temp.i, align 8
  br label %_ZNSt13__atomic_baseImE9fetch_addEmSt12memory_order.exit

seqcst.i:                                         ; preds = %if.then
  %12 = load i64, ptr %.atomictmp.i, align 8
  %13 = atomicrmw add ptr %this1.i, i64 %12 seq_cst, align 8
  store i64 %13, ptr %atomic-temp.i, align 8
  br label %_ZNSt13__atomic_baseImE9fetch_addEmSt12memory_order.exit

_ZNSt13__atomic_baseImE9fetch_addEmSt12memory_order.exit: ; preds = %seqcst.i, %acqrel.i, %release.i, %acquire.i, %monotonic.i
  %14 = load i64, ptr %atomic-temp.i, align 8
  %xor = xor i64 %1, %14
  %15 = load ptr, ptr %lower.addr, align 8
  store i64 %xor, ptr %15, align 8
  %base_upper_ = getelementptr inbounds %"class.rocksdb::SemiStructuredUniqueIdGen", ptr %this1, i32 0, i32 0
  %16 = load i64, ptr %base_upper_, align 8
  %17 = load ptr, ptr %upper.addr, align 8
  store i64 %16, ptr %17, align 8
  br label %if.end

if.else:                                          ; preds = %entry
  %18 = load ptr, ptr %upper.addr, align 8
  %19 = load ptr, ptr %lower.addr, align 8
  call void @_ZN7rocksdb19GenerateRawUniqueIdEPmS0_b(ptr noundef %18, ptr noundef %19, i1 noundef zeroext false)
  br label %if.end

if.end:                                           ; preds = %if.else, %_ZNSt13__atomic_baseImE9fetch_addEmSt12memory_order.exit
  ret void
}