; Function Attrs: mustprogress uwtable
define void @_ZN7rocksdb25SemiStructuredUniqueIdGen12GenerateNextEPmS1_(ptr noundef nonnull align 8 captures(none) dereferenceable(32) %this, ptr noundef %upper, ptr noundef %lower) local_unnamed_addr #0 align 2 {
entry:
  %call = tail call noundef i64 @_ZN7rocksdb4port12GetProcessIDEv()
  %saved_process_id_ = getelementptr inbounds nuw i8, ptr %this, i64 24
  %0 = load i64, ptr %saved_process_id_, align 8
  %cmp = icmp eq i64 %call, %0
  br i1 %cmp, label %if.then, label %if.else

if.then:                                          ; preds = %entry
  %base_lower_ = getelementptr inbounds nuw i8, ptr %this, i64 8
  %1 = load i64, ptr %base_lower_, align 8
  %counter_ = getelementptr inbounds nuw i8, ptr %this, i64 16
  %2 = atomicrmw add ptr %counter_, i64 1 seq_cst, align 8
  %xor = xor i64 %2, %1
  store i64 %xor, ptr %lower, align 8
  %3 = load i64, ptr %this, align 8
  store i64 %3, ptr %upper, align 8
  br label %if.end

if.else:                                          ; preds = %entry
  tail call void @_ZN7rocksdb19GenerateRawUniqueIdEPmS0_b(ptr noundef %upper, ptr noundef %lower, i1 noundef zeroext false)
  br label %if.end

if.end:                                           ; preds = %if.else, %if.then
  ret void
}